; Function Attrs: mustprogress nofree norecurse nosync nounwind willreturn memory(argmem: write) uwtable
define void @BrotliDecoderSetMetadataCallbacks(ptr noundef writeonly captures(none) initializes((720, 744)) %0, ptr noundef %1, ptr noundef %2, ptr noundef %3) local_unnamed_addr #14 {
  %5 = getelementptr inbounds nuw i8, ptr %0, i64 720
  store ptr %1, ptr %5, align 8, !tbaa !52
  %6 = getelementptr inbounds nuw i8, ptr %0, i64 728
  store ptr %2, ptr %6, align 8, !tbaa !134
  %7 = getelementptr inbounds nuw i8, ptr %0, i64 736
  store ptr %3, ptr %7, align 8, !tbaa !53
  ret void
}